target datalayout = "e-m:e-p270:32:32-p271:32:32-p272:64:64-i64:64-i128:128-f80:128-n8:16:32:64-S128"
target triple = "x86_64-pc-linux-gnu"

; Function Attrs: nounwind uwtable
define hidden i32 @FixedDiv1_C(i32 noundef %0, i32 noundef %1) #0 {
  %3 = alloca i32, align 4
  %4 = alloca i32, align 4
  store i32 %0, ptr %3, align 4
  store i32 %1, ptr %4, align 4
  %5 = load i32, ptr %3, align 4
  %6 = sext i32 %5 to i64
  %7 = shl i64 %6, 16
  %8 = sub nsw i64 %7, 65537
  %9 = load i32, ptr %4, align 4
  %10 = sub nsw i32 %9, 1
  %11 = sext i32 %10 to i64
  %12 = sdiv i64 %8, %11
  %13 = trunc i64 %12 to i32
  ret i32 %13
}

; Function Attrs: nounwind uwtable
define hidden i32 @FixedDiv_C(i32 noundef %0, i32 noundef %1) #0 {
  %3 = alloca i32, align 4
  %4 = alloca i32, align 4
  store i32 %0, ptr %3, align 4
  store i32 %1, ptr %4, align 4
  %5 = load i32, ptr %3, align 4
  %6 = sext i32 %5 to i64
  %7 = shl i64 %6, 16
  %8 = load i32, ptr %4, align 4
  %9 = sext i32 %8 to i64
  %10 = sdiv i64 %7, %9
  %11 = trunc i64 %10 to i32
  ret i32 %11
}

; Function Attrs: nounwind uwtable
define internal i32 @Abs(i32 noundef %0) #0 {
  %2 = alloca i32, align 4
  store i32 %0, ptr %2, align 4
  %3 = load i32, ptr %2, align 4
  %4 = icmp sge i32 %3, 0
  br i1 %4, label %5, label %7

5:                                                ; preds = %1
  %6 = load i32, ptr %2, align 4
  br label %10

7:                                                ; preds = %1
  %8 = load i32, ptr %2, align 4
  %9 = sub nsw i32 0, %8
  br label %10

10:                                               ; preds = %7, %5
  %11 = phi i32 [ %6, %5 ], [ %9, %7 ]
  ret i32 %11
}

; Function Attrs: nounwind uwtable
define hidden void @ScaleSlope(i32 noundef %0, i32 noundef %1, i32 noundef %2, i32 noundef %3, i32 noundef %4, ptr noundef %5, ptr noundef %6, ptr noundef %7, ptr noundef %8) #0 {
  %10 = alloca i32, align 4
  %11 = alloca i32, align 4
  %12 = alloca i32, align 4
  %13 = alloca i32, align 4
  %14 = alloca i32, align 4
  %15 = alloca ptr, align 8
  %16 = alloca ptr, align 8
  %17 = alloca ptr, align 8
  %18 = alloca ptr, align 8
  store i32 %0, ptr %10, align 4
  store i32 %1, ptr %11, align 4
  store i32 %2, ptr %12, align 4
  store i32 %3, ptr %13, align 4
  store i32 %4, ptr %14, align 4
  store ptr %5, ptr %15, align 8
  store ptr %6, ptr %16, align 8
  store ptr %7, ptr %17, align 8
  store ptr %8, ptr %18, align 8
  %19 = load i32, ptr %12, align 4
  %20 = icmp eq i32 %19, 1
  br i1 %20, label %21, label %26

21:                                               ; preds = %9
  %22 = load i32, ptr %10, align 4
  %23 = icmp sge i32 %22, 32768
  br i1 %23, label %24, label %26

24:                                               ; preds = %21
  %25 = load i32, ptr %10, align 4
  store i32 %25, ptr %12, align 4
  br label %26

26:                                               ; preds = %24, %21, %9
  %27 = load i32, ptr %13, align 4
  %28 = icmp eq i32 %27, 1
  br i1 %28, label %29, label %34

29:                                               ; preds = %26
  %30 = load i32, ptr %11, align 4
  %31 = icmp sge i32 %30, 32768
  br i1 %31, label %32, label %34

32:                                               ; preds = %29
  %33 = load i32, ptr %11, align 4
  store i32 %33, ptr %13, align 4
  br label %34

34:                                               ; preds = %32, %29, %26
  %35 = load i32, ptr %14, align 4
  %36 = icmp eq i32 %35, 3
  br i1 %36, label %37, label %49

37:                                               ; preds = %34
  %38 = load i32, ptr %10, align 4
  %39 = call i32 @Abs(i32 noundef %38)
  %40 = load i32, ptr %12, align 4
  %41 = call i32 @FixedDiv_C(i32 noundef %39, i32 noundef %40)
  %42 = load ptr, ptr %17, align 8
  store i32 %41, ptr %42, align 4
  %43 = load i32, ptr %11, align 4
  %44 = load i32, ptr %13, align 4
  %45 = call i32 @FixedDiv_C(i32 noundef %43, i32 noundef %44)
  %46 = load ptr, ptr %18, align 8
  store i32 %45, ptr %46, align 4
  %47 = load ptr, ptr %15, align 8
  store i32 0, ptr %47, align 4
  %48 = load ptr, ptr %16, align 8
  store i32 0, ptr %48, align 4
  br label %239

49:                                               ; preds = %34
  %50 = load i32, ptr %14, align 4
  %51 = icmp eq i32 %50, 2
  br i1 %51, label %52, label %136

52:                                               ; preds = %49
  %53 = load i32, ptr %12, align 4
  %54 = load i32, ptr %10, align 4
  %55 = call i32 @Abs(i32 noundef %54)
  %56 = icmp sle i32 %53, %55
  br i1 %56, label %57, label %81

57:                                               ; preds = %52
  %58 = load i32, ptr %10, align 4
  %59 = call i32 @Abs(i32 noundef %58)
  %60 = load i32, ptr %12, align 4
  %61 = call i32 @FixedDiv_C(i32 noundef %59, i32 noundef %60)
  %62 = load ptr, ptr %17, align 8
  store i32 %61, ptr %62, align 4
  %63 = load ptr, ptr %17, align 8
  %64 = load i32, ptr %63, align 4
  %65 = icmp slt i32 %64, 0
  br i1 %65, label %66, label %73

66:                                               ; preds = %57
  %67 = load ptr, ptr %17, align 8
  %68 = load i32, ptr %67, align 4
  %69 = sub nsw i32 0, %68
  %70 = ashr i32 %69, 1
  %71 = add nsw i32 %70, -32768
  %72 = sub nsw i32 0, %71
  br label %78

73:                                               ; preds = %57
  %74 = load ptr, ptr %17, align 8
  %75 = load i32, ptr %74, align 4
  %76 = ashr i32 %75, 1
  %77 = add nsw i32 %76, -32768
  br label %78

78:                                               ; preds = %73, %66
  %79 = phi i32 [ %72, %66 ], [ %77, %73 ]
  %80 = load ptr, ptr %15, align 8
  store i32 %79, ptr %80, align 4
  br label %95

81:                                               ; preds = %52
  %82 = load i32, ptr %10, align 4
  %83 = icmp sgt i32 %82, 1
  br i1 %83, label %84, label %94

84:                                               ; preds = %81
  %85 = load i32, ptr %12, align 4
  %86 = icmp sgt i32 %85, 1
  br i1 %86, label %87, label %94

87:                                               ; preds = %84
  %88 = load i32, ptr %10, align 4
  %89 = call i32 @Abs(i32 noundef %88)
  %90 = load i32, ptr %12, align 4
  %91 = call i32 @FixedDiv1_C(i32 noundef %89, i32 noundef %90)
  %92 = load ptr, ptr %17, align 8
  store i32 %91, ptr %92, align 4
  %93 = load ptr, ptr %15, align 8
  store i32 0, ptr %93, align 4
  br label %94

94:                                               ; preds = %87, %84, %81
  br label %95

95:                                               ; preds = %94, %78
  %96 = load i32, ptr %13, align 4
  %97 = load i32, ptr %11, align 4
  %98 = icmp sle i32 %96, %97
  br i1 %98, label %99, label %122

99:                                               ; preds = %95
  %100 = load i32, ptr %11, align 4
  %101 = load i32, ptr %13, align 4
  %102 = call i32 @FixedDiv_C(i32 noundef %100, i32 noundef %101)
  %103 = load ptr, ptr %18, align 8
  store i32 %102, ptr %103, align 4
  %104 = load ptr, ptr %18, align 8
  %105 = load i32, ptr %104, align 4
  %106 = icmp slt i32 %105, 0
  br i1 %106, label %107, label %114

107:                                              ; preds = %99
  %108 = load ptr, ptr %18, align 8
  %109 = load i32, ptr %108, align 4
  %110 = sub nsw i32 0, %109
  %111 = ashr i32 %110, 1
  %112 = add nsw i32 %111, -32768
  %113 = sub nsw i32 0, %112
  br label %119

114:                                              ; preds = %99
  %115 = load ptr, ptr %18, align 8
  %116 = load i32, ptr %115, align 4
  %117 = ashr i32 %116, 1
  %118 = add nsw i32 %117, -32768
  br label %119

119:                                              ; preds = %114, %107
  %120 = phi i32 [ %113, %107 ], [ %118, %114 ]
  %121 = load ptr, ptr %16, align 8
  store i32 %120, ptr %121, align 4
  br label %135

122:                                              ; preds = %95
  %123 = load i32, ptr %11, align 4
  %124 = icmp sgt i32 %123, 1
  br i1 %124, label %125, label %134

125:                                              ; preds = %122
  %126 = load i32, ptr %13, align 4
  %127 = icmp sgt i32 %126, 1
  br i1 %127, label %128, label %134

128:                                              ; preds = %125
  %129 = load i32, ptr %11, align 4
  %130 = load i32, ptr %13, align 4
  %131 = call i32 @FixedDiv1_C(i32 noundef %129, i32 noundef %130)
  %132 = load ptr, ptr %18, align 8
  store i32 %131, ptr %132, align 4
  %133 = load ptr, ptr %16, align 8
  store i32 0, ptr %133, align 4
  br label %134

134:                                              ; preds = %128, %125, %122
  br label %135

135:                                              ; preds = %134, %119
  br label %238

136:                                              ; preds = %49
  %137 = load i32, ptr %14, align 4
  %138 = icmp eq i32 %137, 1
  br i1 %138, label %139, label %191

139:                                              ; preds = %136
  %140 = load i32, ptr %12, align 4
  %141 = load i32, ptr %10, align 4
  %142 = call i32 @Abs(i32 noundef %141)
  %143 = icmp sle i32 %140, %142
  br i1 %143, label %144, label %168

144:                                              ; preds = %139
  %145 = load i32, ptr %10, align 4
  %146 = call i32 @Abs(i32 noundef %145)
  %147 = load i32, ptr %12, align 4
  %148 = call i32 @FixedDiv_C(i32 noundef %146, i32 noundef %147)
  %149 = load ptr, ptr %17, align 8
  store i32 %148, ptr %149, align 4
  %150 = load ptr, ptr %17, align 8
  %151 = load i32, ptr %150, align 4
  %152 = icmp slt i32 %151, 0
  br i1 %152, label %153, label %160

153:                                              ; preds = %144
  %154 = load ptr, ptr %17, align 8
  %155 = load i32, ptr %154, align 4
  %156 = sub nsw i32 0, %155
  %157 = ashr i32 %156, 1
  %158 = add nsw i32 %157, -32768
  %159 = sub nsw i32 0, %158
  br label %165

160:                                              ; preds = %144
  %161 = load ptr, ptr %17, align 8
  %162 = load i32, ptr %161, align 4
  %163 = ashr i32 %162, 1
  %164 = add nsw i32 %163, -32768
  br label %165

165:                                              ; preds = %160, %153
  %166 = phi i32 [ %159, %153 ], [ %164, %160 ]
  %167 = load ptr, ptr %15, align 8
  store i32 %166, ptr %167, align 4
  br label %182

168:                                              ; preds = %139
  %169 = load i32, ptr %10, align 4
  %170 = icmp sgt i32 %169, 1
  br i1 %170, label %171, label %181

171:                                              ; preds = %168
  %172 = load i32, ptr %12, align 4
  %173 = icmp sgt i32 %172, 1
  br i1 %173, label %174, label %181

174:                                              ; preds = %171
  %175 = load i32, ptr %10, align 4
  %176 = call i32 @Abs(i32 noundef %175)
  %177 = load i32, ptr %12, align 4
  %178 = call i32 @FixedDiv1_C(i32 noundef %176, i32 noundef %177)
  %179 = load ptr, ptr %17, align 8
  store i32 %178, ptr %179, align 4
  %180 = load ptr, ptr %15, align 8
  store i32 0, ptr %180, align 4
  br label %181

181:                                              ; preds = %174, %171, %168
  br label %182

182:                                              ; preds = %181, %165
  %183 = load i32, ptr %11, align 4
  %184 = load i32, ptr %13, align 4
  %185 = call i32 @FixedDiv_C(i32 noundef %183, i32 noundef %184)
  %186 = load ptr, ptr %18, align 8
  store i32 %185, ptr %186, align 4
  %187 = load ptr, ptr %18, align 8
  %188 = load i32, ptr %187, align 4
  %189 = ashr i32 %188, 1
  %190 = load ptr, ptr %16, align 8
  store i32 %189, ptr %190, align 4
  br label %237

191:                                              ; preds = %136
  %192 = load i32, ptr %10, align 4
  %193 = call i32 @Abs(i32 noundef %192)
  %194 = load i32, ptr %12, align 4
  %195 = call i32 @FixedDiv_C(i32 noundef %193, i32 noundef %194)
  %196 = load ptr, ptr %17, align 8
  store i32 %195, ptr %196, align 4
  %197 = load i32, ptr %11, align 4
  %198 = load i32, ptr %13, align 4
  %199 = call i32 @FixedDiv_C(i32 noundef %197, i32 noundef %198)
  %200 = load ptr, ptr %18, align 8
  store i32 %199, ptr %200, align 4
  %201 = load ptr, ptr %17, align 8
  %202 = load i32, ptr %201, align 4
  %203 = icmp slt i32 %202, 0
  br i1 %203, label %204, label %211

204:                                              ; preds = %191
  %205 = load ptr, ptr %17, align 8
  %206 = load i32, ptr %205, align 4
  %207 = sub nsw i32 0, %206
  %208 = ashr i32 %207, 1
  %209 = add nsw i32 %208, 0
  %210 = sub nsw i32 0, %209
  br label %216

211:                                              ; preds = %191
  %212 = load ptr, ptr %17, align 8
  %213 = load i32, ptr %212, align 4
  %214 = ashr i32 %213, 1
  %215 = add nsw i32 %214, 0
  br label %216

216:                                              ; preds = %211, %204
  %217 = phi i32 [ %210, %204 ], [ %215, %211 ]
  %218 = load ptr, ptr %15, align 8
  store i32 %217, ptr %218, align 4
  %219 = load ptr, ptr %18, align 8
  %220 = load i32, ptr %219, align 4
  %221 = icmp slt i32 %220, 0
  br i1 %221, label %222, label %229

222:                                              ; preds = %216
  %223 = load ptr, ptr %18, align 8
  %224 = load i32, ptr %223, align 4
  %225 = sub nsw i32 0, %224
  %226 = ashr i32 %225, 1
  %227 = add nsw i32 %226, 0
  %228 = sub nsw i32 0, %227
  br label %234

229:                                              ; preds = %216
  %230 = load ptr, ptr %18, align 8
  %231 = load i32, ptr %230, align 4
  %232 = ashr i32 %231, 1
  %233 = add nsw i32 %232, 0
  br label %234

234:                                              ; preds = %229, %222
  %235 = phi i32 [ %228, %222 ], [ %233, %229 ]
  %236 = load ptr, ptr %16, align 8
  store i32 %235, ptr %236, align 4
  br label %237

237:                                              ; preds = %234, %182
  br label %238

238:                                              ; preds = %237, %135
  br label %239

239:                                              ; preds = %238, %37
  %240 = load i32, ptr %10, align 4
  %241 = icmp slt i32 %240, 0
  br i1 %241, label %242, label %255

242:                                              ; preds = %239
  %243 = load i32, ptr %12, align 4
  %244 = sub nsw i32 %243, 1
  %245 = load ptr, ptr %17, align 8
  %246 = load i32, ptr %245, align 4
  %247 = mul nsw i32 %244, %246
  %248 = load ptr, ptr %15, align 8
  %249 = load i32, ptr %248, align 4
  %250 = add nsw i32 %249, %247
  store i32 %250, ptr %248, align 4
  %251 = load ptr, ptr %17, align 8
  %252 = load i32, ptr %251, align 4
  %253 = sub nsw i32 0, %252
  %254 = load ptr, ptr %17, align 8
  store i32 %253, ptr %254, align 4
  br label %255

255:                                              ; preds = %242, %239
  ret void
}