; Function Attrs: mustprogress nofree norecurse nosync nounwind willreturn memory(argmem: readwrite) uwtable
define hidden void @ScaleSlope(i32 noundef %0, i32 noundef %1, i32 noundef %2, i32 noundef %3, i32 noundef %4, ptr noundef captures(none) %5, ptr noundef writeonly captures(none) %6, ptr noundef captures(none) %7, ptr noundef captures(none) %8) local_unnamed_addr #4 {
  %10 = icmp eq i32 %2, 1
  %11 = icmp sgt i32 %0, 32767
  %or.cond = and i1 %11, %10
  %spec.select = select i1 %or.cond, i32 %0, i32 %2
  %12 = icmp eq i32 %3, 1
  %13 = icmp sgt i32 %1, 32767
  %or.cond3 = and i1 %13, %12
  %.095 = select i1 %or.cond3, i32 %1, i32 %3
  %14 = tail call range(i32 0, -2147483648) i32 @llvm.abs.i32(i32 %0, i1 true)
  switch i32 %4, label %110 [
    i32 3, label %15
    i32 2, label %26
    i32 1, label %77
  ]

15:                                               ; preds = %9
  %16 = zext nneg i32 %14 to i64
  %17 = shl nuw nsw i64 %16, 16
  %18 = sext i32 %spec.select to i64
  %19 = sdiv i64 %17, %18
  %20 = trunc i64 %19 to i32
  store i32 %20, ptr %7, align 4
  %21 = sext i32 %1 to i64
  %22 = shl nsw i64 %21, 16
  %23 = sext i32 %.095 to i64
  %24 = sdiv i64 %22, %23
  %25 = trunc i64 %24 to i32
  store i32 %25, ptr %8, align 4
  store i32 0, ptr %5, align 4
  br label %.sink.split115

26:                                               ; preds = %9
  %.not111 = icmp sgt i32 %spec.select, %14
  br i1 %.not111, label %41, label %27

27:                                               ; preds = %26
  %28 = zext nneg i32 %14 to i64
  %29 = shl nuw nsw i64 %28, 16
  %30 = sext i32 %spec.select to i64
  %31 = sdiv i64 %29, %30
  %32 = trunc i64 %31 to i32
  store i32 %32, ptr %7, align 4
  %33 = icmp slt i32 %32, 0
  br i1 %33, label %34, label %38

34:                                               ; preds = %27
  %35 = sub nsw i32 0, %32
  %36 = lshr i32 %35, 1
  %37 = sub nsw i32 32768, %36
  br label %.sink.split

38:                                               ; preds = %27
  %39 = lshr i32 %32, 1
  %40 = add nsw i32 %39, -32768
  br label %.sink.split

41:                                               ; preds = %26
  %42 = icmp sgt i32 %0, 1
  %43 = icmp samesign ugt i32 %spec.select, 1
  %or.cond5 = and i1 %42, %43
  br i1 %or.cond5, label %44, label %52

44:                                               ; preds = %41
  %45 = zext nneg i32 %14 to i64
  %46 = shl nuw nsw i64 %45, 16
  %47 = add nsw i64 %46, -65537
  %48 = add nsw i32 %spec.select, -1
  %49 = zext nneg i32 %48 to i64
  %50 = sdiv i64 %47, %49
  %51 = trunc i64 %50 to i32
  store i32 %51, ptr %7, align 4
  br label %.sink.split

.sink.split:                                      ; preds = %34, %38, %44
  %.sink = phi i32 [ 0, %44 ], [ %37, %34 ], [ %40, %38 ]
  store i32 %.sink, ptr %5, align 4
  br label %52

52:                                               ; preds = %.sink.split, %41
  %.not112 = icmp sgt i32 %.095, %1
  br i1 %.not112, label %67, label %53

53:                                               ; preds = %52
  %54 = sext i32 %1 to i64
  %55 = shl nsw i64 %54, 16
  %56 = sext i32 %.095 to i64
  %57 = sdiv i64 %55, %56
  %58 = trunc i64 %57 to i32
  store i32 %58, ptr %8, align 4
  %59 = icmp slt i32 %58, 0
  br i1 %59, label %60, label %64

60:                                               ; preds = %53
  %61 = sub nsw i32 0, %58
  %62 = lshr i32 %61, 1
  %63 = sub nsw i32 32768, %62
  br label %.sink.split115

64:                                               ; preds = %53
  %65 = lshr i32 %58, 1
  %66 = add nsw i32 %65, -32768
  br label %.sink.split115

67:                                               ; preds = %52
  %68 = icmp sgt i32 %1, 1
  br i1 %68, label %69, label %135

69:                                               ; preds = %67
  %70 = zext nneg i32 %1 to i64
  %71 = shl nuw nsw i64 %70, 16
  %72 = add nsw i64 %71, -65537
  %73 = add nsw i32 %.095, -1
  %74 = zext nneg i32 %73 to i64
  %75 = udiv i64 %72, %74
  %76 = trunc i64 %75 to i32
  store i32 %76, ptr %8, align 4
  br label %.sink.split115

77:                                               ; preds = %9
  %.not = icmp sgt i32 %spec.select, %14
  br i1 %.not, label %92, label %78

78:                                               ; preds = %77
  %79 = zext nneg i32 %14 to i64
  %80 = shl nuw nsw i64 %79, 16
  %81 = sext i32 %spec.select to i64
  %82 = sdiv i64 %80, %81
  %83 = trunc i64 %82 to i32
  store i32 %83, ptr %7, align 4
  %84 = icmp slt i32 %83, 0
  br i1 %84, label %85, label %89

85:                                               ; preds = %78
  %86 = sub nsw i32 0, %83
  %87 = lshr i32 %86, 1
  %88 = sub nsw i32 32768, %87
  br label %.sink.split113

89:                                               ; preds = %78
  %90 = lshr i32 %83, 1
  %91 = add nsw i32 %90, -32768
  br label %.sink.split113

92:                                               ; preds = %77
  %93 = icmp sgt i32 %0, 1
  %94 = icmp samesign ugt i32 %spec.select, 1
  %or.cond9 = and i1 %93, %94
  br i1 %or.cond9, label %95, label %103

95:                                               ; preds = %92
  %96 = zext nneg i32 %14 to i64
  %97 = shl nuw nsw i64 %96, 16
  %98 = add nsw i64 %97, -65537
  %99 = add nsw i32 %spec.select, -1
  %100 = zext nneg i32 %99 to i64
  %101 = sdiv i64 %98, %100
  %102 = trunc i64 %101 to i32
  store i32 %102, ptr %7, align 4
  br label %.sink.split113

.sink.split113:                                   ; preds = %85, %89, %95
  %.sink114 = phi i32 [ 0, %95 ], [ %88, %85 ], [ %91, %89 ]
  store i32 %.sink114, ptr %5, align 4
  br label %103

103:                                              ; preds = %.sink.split113, %92
  %104 = sext i32 %1 to i64
  %105 = shl nsw i64 %104, 16
  %106 = sext i32 %.095 to i64
  %107 = sdiv i64 %105, %106
  %108 = trunc i64 %107 to i32
  store i32 %108, ptr %8, align 4
  %109 = ashr i32 %108, 1
  br label %.sink.split115

110:                                              ; preds = %9
  %111 = zext nneg i32 %14 to i64
  %112 = shl nuw nsw i64 %111, 16
  %113 = sext i32 %spec.select to i64
  %114 = sdiv i64 %112, %113
  %115 = trunc i64 %114 to i32
  store i32 %115, ptr %7, align 4
  %116 = sext i32 %1 to i64
  %117 = shl nsw i64 %116, 16
  %118 = sext i32 %.095 to i64
  %119 = sdiv i64 %117, %118
  %120 = trunc i64 %119 to i32
  store i32 %120, ptr %8, align 4
  %121 = load i32, ptr %7, align 4
  %122 = icmp slt i32 %121, 0
  %123 = sub nsw i32 0, %121
  %124 = lshr i32 %123, 1
  %125 = sub nsw i32 0, %124
  %126 = lshr i32 %121, 1
  %127 = select i1 %122, i32 %125, i32 %126
  store i32 %127, ptr %5, align 4
  %128 = load i32, ptr %8, align 4
  %129 = icmp slt i32 %128, 0
  %130 = sub nsw i32 0, %128
  %131 = lshr i32 %130, 1
  %132 = sub nsw i32 0, %131
  %133 = lshr i32 %128, 1
  %134 = select i1 %129, i32 %132, i32 %133
  br label %.sink.split115

.sink.split115:                                   ; preds = %60, %64, %15, %103, %110, %69
  %.sink116 = phi i32 [ 0, %69 ], [ %134, %110 ], [ %109, %103 ], [ 0, %15 ], [ %63, %60 ], [ %66, %64 ]
  store i32 %.sink116, ptr %6, align 4
  br label %135

135:                                              ; preds = %.sink.split115, %67
  %136 = icmp slt i32 %0, 0
  br i1 %136, label %137, label %145

137:                                              ; preds = %135
  %138 = add nsw i32 %spec.select, -1
  %139 = load i32, ptr %7, align 4
  %140 = mul nsw i32 %139, %138
  %141 = load i32, ptr %5, align 4
  %142 = add nsw i32 %141, %140
  store i32 %142, ptr %5, align 4
  %143 = load i32, ptr %7, align 4
  %144 = sub nsw i32 0, %143
  store i32 %144, ptr %7, align 4
  br label %145

145:                                              ; preds = %137, %135
  ret void
}